Certificate:
    Data:
        Version: 3 (0x2)
        Serial Number: 116 (0x74)
        Signature Algorithm: md5WithRSAEncryption
        Issuer: C=MX, ST=Son, L=Hermosillo, O=Gob-Son, CN=Gob-Son CA/emailAddress=me@myhost.mydomain
        Validity
            Not Before: Jul  2 22:30:04 2019 GMT
            Not After : Jun 29 22:30:04 2029 GMT
        Subject: C=MX, ST=Son, L=Hermosillo, O=Gob-Son, CN=Sidur2/emailAddress=me@myhost.mydomain
        Subject Public Key Info:
            Public Key Algorithm: rsaEncryption
            RSA Public Key: (1024 bit)
                Modulus (1024 bit):
                    00:c8:3a:eb:3e:87:09:4c:f4:6c:00:4e:7b:0c:aa:
                    46:7a:81:f6:e1:92:23:46:b6:8e:15:91:6a:d9:ac:
                    c3:4e:54:76:df:d5:ab:23:db:41:28:42:7e:04:09:
                    81:cd:fd:f6:6b:63:97:f6:79:be:0e:62:73:a0:b2:
                    25:9f:ae:31:5d:b5:3e:0d:51:8b:63:cc:45:2d:09:
                    46:1a:60:9c:f6:b7:58:ad:80:24:59:81:9e:08:17:
                    22:ed:94:77:d7:50:71:7b:af:d8:0f:5d:51:06:84:
                    51:49:e0:2e:d4:7e:28:06:86:b6:0d:cc:45:21:d1:
                    d7:f0:af:f4:b9:7c:15:83:59
                Exponent: 65537 (0x10001)
        X509v3 extensions:
            X509v3 Basic Constraints: 
                CA:FALSE
            Netscape Comment: 
                OpenSSL Generated Certificate
            X509v3 Subject Key Identifier: 
                A9:41:CE:48:B5:4A:02:66:CF:11:23:2E:3C:DF:49:74:E7:62:C1:56
            X509v3 Authority Key Identifier: 
                keyid:63:FE:B5:CF:C6:AE:D4:CB:91:05:82:20:C9:8C:9F:F3:AC:5D:AF:23
                DirName:/C=MX/ST=Son/L=Hermosillo/O=Gob-Son/CN=Gob-Son CA/emailAddress=me@myhost.mydomain
                serial:AF:A9:B4:94:EE:DF:62:A9

    Signature Algorithm: md5WithRSAEncryption
        8f:6f:7c:21:6a:bc:d0:1d:65:45:cd:cd:5b:b9:c5:4a:dd:17:
        0e:ae:bb:a1:3c:3d:6b:e5:f4:b5:64:41:6c:21:2e:de:76:0f:
        62:b7:a5:b5:5c:88:c7:fa:e2:3f:de:49:d7:7a:4b:f3:e9:e9:
        ea:b9:b4:e9:c3:5b:0f:90:b5:8e:1f:76:9b:c0:0e:91:a9:20:
        43:f9:74:5f:49:a4:30:4c:40:67:3c:7c:ab:e0:4a:1d:1c:68:
        cd:37:d2:4f:5d:66:de:3e:64:09:3d:5e:3c:48:a8:06:8d:1b:
        ce:43:f4:ac:a8:b7:68:28:0e:08:e8:15:fe:90:4a:e1:aa:f8:
        45:87
-----BEGIN CERTIFICATE-----
MIIDczCCAtygAwIBAgIBdDANBgkqhkiG9w0BAQQFADB6MQswCQYDVQQGEwJNWDEM
MAoGA1UECBMDU29uMRMwEQYDVQQHEwpIZXJtb3NpbGxvMRAwDgYDVQQKEwdHb2It
U29uMRMwEQYDVQQDEwpHb2ItU29uIENBMSEwHwYJKoZIhvcNAQkBFhJtZUBteWhv
c3QubXlkb21haW4wHhcNMTkwNzAyMjIzMDA0WhcNMjkwNjI5MjIzMDA0WjB2MQsw
CQYDVQQGEwJNWDEMMAoGA1UECBMDU29uMRMwEQYDVQQHEwpIZXJtb3NpbGxvMRAw
DgYDVQQKEwdHb2ItU29uMQ8wDQYDVQQDEwZTaWR1cjIxITAfBgkqhkiG9w0BCQEW
Em1lQG15aG9zdC5teWRvbWFpbjCBnzANBgkqhkiG9w0BAQEFAAOBjQAwgYkCgYEA
yDrrPocJTPRsAE57DKpGeoH24ZIjRraOFZFq2azDTlR239WrI9tBKEJ+BAmBzf32
a2OX9nm+DmJzoLIln64xXbU+DVGLY8xFLQlGGmCc9rdYrYAkWYGeCBci7ZR311Bx
e6/YD11RBoRRSeAu1H4oBoa2DcxFIdHX8K/0uXwVg1kCAwEAAaOCAQswggEHMAkG
A1UdEwQCMAAwLAYJYIZIAYb4QgENBB8WHU9wZW5TU0wgR2VuZXJhdGVkIENlcnRp
ZmljYXRlMB0GA1UdDgQWBBSpQc5ItUoCZs8RIy4830l052LBVjCBrAYDVR0jBIGk
MIGhgBRj/rXPxq7Uy5EFgiDJjJ/zrF2vI6F+pHwwejELMAkGA1UEBhMCTVgxDDAK
BgNVBAgTA1NvbjETMBEGA1UEBxMKSGVybW9zaWxsbzEQMA4GA1UEChMHR29iLVNv
bjETMBEGA1UEAxMKR29iLVNvbiBDQTEhMB8GCSqGSIb3DQEJARYSbWVAbXlob3N0
Lm15ZG9tYWluggkAr6m0lO7fYqkwDQYJKoZIhvcNAQEEBQADgYEAj298IWq80B1l
Rc3NW7nFSt0XDq67oTw9a+X0tWRBbCEu3nYPYreltVyIx/riP95J13pL8+np6rm0
6cNbD5C1jh92m8AOkakgQ/l0X0mkMExAZzx8q+BKHRxozTfST11m3j5kCT1ePEio
Bo0bzkP0rKi3aCgOCOgV/pBK4ar4RYc=
-----END CERTIFICATE-----
